; Function Attrs: nounwind uwtable
define internal fastcc i32 @ftp_state_use_pasv(ptr noundef %0, ptr noundef %1) unnamed_addr #0 {
  %3 = getelementptr inbounds nuw i8, ptr %1, i64 1056
  %4 = getelementptr inbounds nuw i8, ptr %1, i64 920
  %5 = load i64, ptr %4, align 8
  %6 = and i64 %5, 34816
  %or.cond.not = icmp eq i64 %6, 2048
  br i1 %or.cond.not, label %7, label %9

7:                                                ; preds = %2
  %8 = or disjoint i64 %5, 32768
  store i64 %8, ptr %4, align 8
  br label %9

9:                                                ; preds = %7, %2
  %10 = phi i64 [ %8, %7 ], [ %5, %2 ]
  %11 = and i64 %10, 32768
  %.lobit = lshr exact i64 %11, 15
  %12 = xor i64 %.lobit, 1
  %13 = getelementptr inbounds nuw [2 x [5 x i8]], ptr @ftp_state_use_pasv.mode, i64 0, i64 %12
  %14 = tail call i32 (ptr, ptr, ptr, ...) @Curl_pp_sendf(ptr noundef %0, ptr noundef nonnull %3, ptr noundef nonnull @.str.51, ptr noundef nonnull %13) #10
  %.not20 = icmp eq i32 %14, 0
  br i1 %.not20, label %15, label %54

15:                                               ; preds = %9
  %.not19 = icmp eq i64 %11, 0
  %16 = zext i1 %.not19 to i32
  %17 = getelementptr inbounds nuw i8, ptr %1, i64 1312
  store i32 %16, ptr %17, align 8, !tbaa !163
  %18 = getelementptr inbounds nuw i8, ptr %0, i64 24
  %19 = load ptr, ptr %18, align 8, !tbaa !107
  %20 = getelementptr inbounds nuw i8, ptr %19, i64 1326
  %21 = load i8, ptr %20, align 2, !tbaa !138
  %22 = icmp ne i8 %21, 30
  %23 = icmp ne ptr %0, null
  %or.cond4.i = and i1 %23, %22
  br i1 %or.cond4.i, label %24, label %42

24:                                               ; preds = %15
  %25 = getelementptr inbounds nuw i8, ptr %0, i64 2562
  %26 = load i64, ptr %25, align 2
  %27 = and i64 %26, 134217728
  %.not.i = icmp eq i64 %27, 0
  br i1 %.not.i, label %42, label %28

28:                                               ; preds = %24
  %29 = getelementptr inbounds nuw i8, ptr %0, i64 4712
  %30 = load ptr, ptr %29, align 8, !tbaa !104
  %.not20.i = icmp eq ptr %30, null
  br i1 %.not20.i, label %37, label %31

31:                                               ; preds = %28
  %32 = getelementptr inbounds nuw i8, ptr %30, i64 8
  %33 = load i32, ptr %32, align 8, !tbaa !105
  %34 = icmp sgt i32 %33, 0
  %35 = load i32, ptr getelementptr inbounds nuw (i8, ptr @Curl_trc_feat_ftp, i64 8), align 8
  %36 = icmp sgt i32 %35, 0
  %or.cond.i = select i1 %34, i1 %36, i1 false
  br i1 %or.cond.i, label %38, label %42

37:                                               ; preds = %28
  %.old.i = load i32, ptr getelementptr inbounds nuw (i8, ptr @Curl_trc_feat_ftp, i64 8), align 8, !tbaa !105
  %.old1.i = icmp sgt i32 %.old.i, 0
  br i1 %.old1.i, label %38, label %42

38:                                               ; preds = %37, %31
  %39 = zext i8 %21 to i64
  %40 = getelementptr inbounds nuw [35 x ptr], ptr @ftp_state_names, i64 0, i64 %39
  %41 = load ptr, ptr %40, align 8, !tbaa !8
  tail call void (ptr, ptr, ...) @Curl_trc_ftp(ptr noundef nonnull %0, ptr noundef nonnull @.str.7, ptr noundef %41, ptr noundef nonnull @.str.39) #10
  br label %42

42:                                               ; preds = %38, %37, %31, %24, %15
  store i8 30, ptr %20, align 2, !tbaa !138
  %43 = getelementptr inbounds nuw i8, ptr %0, i64 2562
  %44 = load i64, ptr %43, align 2
  %45 = and i64 %44, 134217728
  %.not22 = icmp eq i64 %45, 0
  br i1 %.not22, label %54, label %46

46:                                               ; preds = %42
  %47 = getelementptr inbounds nuw i8, ptr %0, i64 4712
  %48 = load ptr, ptr %47, align 8, !tbaa !104
  %.not23 = icmp eq ptr %48, null
  br i1 %.not23, label %53, label %49

49:                                               ; preds = %46
  %50 = getelementptr inbounds nuw i8, ptr %48, i64 8
  %51 = load i32, ptr %50, align 8, !tbaa !105
  %52 = icmp sgt i32 %51, 0
  br i1 %52, label %53, label %54

53:                                               ; preds = %49, %46
  tail call void (ptr, ptr, ...) @Curl_infof(ptr noundef nonnull %0, ptr noundef nonnull @.str.121) #10
  br label %54

54:                                               ; preds = %42, %49, %53, %9
  ret i32 %14
}